
Memory Configuration

Name             Origin             Length             Attributes
mem              0x0000000000000000 0x0000000000018000
*default*        0x0000000000000000 0xffffffffffffffff

Linker script and memory map


.memory         0x0000000000000000     0x8214
                0x0000000000000000                . = 0x0
 *(.rst_vect)
 .rst_vect      0x0000000000000000        0x4 src/start.o
 *(.text)
 .text          0x0000000000000004      0x544 src/or.o
                0x0000000000000004                or
 .text          0x0000000000000548      0x540 src/xor.o
                0x0000000000000548                xor
 .text          0x0000000000000a88      0x260 src/start.o
                0x0000000000000b10                lui_ret
                0x0000000000000b18                auipc_ret
                0x0000000000000b20                j_ret
                0x0000000000000b28                jal_ret
                0x0000000000000b30                jalr_ret
                0x0000000000000b38                beq_ret
                0x0000000000000b40                bne_ret
                0x0000000000000b48                blt_ret
                0x0000000000000b50                bge_ret
                0x0000000000000b58                bltu_ret
                0x0000000000000b60                bgeu_ret
                0x0000000000000b68                lb_ret
                0x0000000000000b70                lh_ret
                0x0000000000000b78                lw_ret
                0x0000000000000b80                lbu_ret
                0x0000000000000b88                lhu_ret
                0x0000000000000b90                sb_ret
                0x0000000000000b98                sh_ret
                0x0000000000000ba0                sw_ret
                0x0000000000000ba8                addi_ret
                0x0000000000000bb0                slti_ret
                0x0000000000000bb8                xori_ret
                0x0000000000000bc0                ori_ret
                0x0000000000000bc8                andi_ret
                0x0000000000000bd0                slli_ret
                0x0000000000000bd8                srli_ret
                0x0000000000000be0                srai_ret
                0x0000000000000be8                add_ret
                0x0000000000000bf0                sub_ret
                0x0000000000000bf8                sll_ret
                0x0000000000000c00                slt_ret
                0x0000000000000c08                xor_ret
                0x0000000000000c10                srl_ret
                0x0000000000000c18                sra_ret
                0x0000000000000c20                or_ret
                0x0000000000000c28                and_ret
                0x0000000000000c30                simple_ret
 .text          0x0000000000000ce8      0x4f8 src/sh.o
                0x0000000000000ce8                sh
 .text          0x00000000000011e0      0x540 src/sub.o
                0x00000000000011e0                sub
 .text          0x0000000000001720      0x5ec src/sll.o
                0x0000000000001720                sll
 .text          0x0000000000001d0c      0x61c src/sra.o
                0x0000000000001d0c                sra
 .text          0x0000000000002328      0x2ec src/lh.o
                0x0000000000002328                lh
 .text          0x0000000000002614      0x33c src/srai.o
                0x0000000000002614                srai
 .text          0x0000000000002950      0x2cc src/lb.o
                0x0000000000002950                lb
 .text          0x0000000000002c1c      0x30c src/addi.o
                0x0000000000002c1c                addi
 .text          0x0000000000002f28      0x308 src/slli.o
                0x0000000000002f28                slli
 .text          0x0000000000003230      0x3d8 src/bgeu.o
                0x0000000000003230                bgeu
 .text          0x0000000000003608      0x504 src/sw.o
                0x0000000000003608                sw
 .text          0x0000000000003b0c      0x340 src/beq.o
                0x0000000000003b0c                beq
 *fill*         0x0000000000003e4c        0x4 
 .text          0x0000000000003e50       0xcc src/auipc.o
                0x0000000000003e50                auipc
 .text          0x0000000000003f1c      0x340 src/blt.o
                0x0000000000003f1c                blt
 .text          0x000000000000425c      0x184 src/jalr.o
                0x000000000000425c                jalr
 .text          0x00000000000043e0      0x30c src/lw.o
                0x00000000000043e0                lw
 .text          0x00000000000046ec      0x25c src/ori.o
                0x00000000000046ec                ori
 .text          0x0000000000004948       0xbc src/j.o
                0x0000000000004948                j
 .text          0x0000000000004a04      0x63c src/srl.o
                0x0000000000004a04                srl
 .text          0x0000000000005040      0x548 src/slt.o
                0x0000000000005040                slt
 .text          0x0000000000005588      0x2cc src/lbu.o
                0x0000000000005588                lbu
 .text          0x0000000000005854      0x300 src/lhu.o
                0x0000000000005854                lhu
 .text          0x0000000000005b54       0x54 src/simple.o
                0x0000000000005b54                simple
 .text          0x0000000000005ba8      0x378 src/bltu.o
                0x0000000000005ba8                bltu
 .text          0x0000000000005f20      0x3a0 src/bge.o
                0x0000000000005f20                bge
 .text          0x00000000000062c0      0x268 src/xori.o
                0x00000000000062c0                xori
 .text          0x0000000000006528      0x474 src/sb.o
                0x0000000000006528                sb
 .text          0x000000000000699c       0xe0 src/lui.o
                0x000000000000699c                lui
 .text          0x0000000000006a7c       0xd8 src/jal.o
                0x0000000000006a7c                jal
 .text          0x0000000000006b54      0x560 src/add.o
                0x0000000000006b54                add
 .text          0x00000000000070b4      0x338 src/srli.o
                0x00000000000070b4                srli
 .text          0x00000000000073ec      0x244 src/andi.o
                0x00000000000073ec                andi
 .text          0x0000000000007630      0x344 src/bne.o
                0x0000000000007630                bne
 .text          0x0000000000007974      0x538 src/and.o
                0x0000000000007974                and
 .text          0x0000000000007eac      0x2f8 src/slti.o
                0x0000000000007eac                slti
 *(*)
 .data          0x00000000000081a4        0x0 src/or.o
 .bss           0x00000000000081a4        0x0 src/or.o
 .data          0x00000000000081a4        0x0 src/xor.o
 .bss           0x00000000000081a4        0x0 src/xor.o
 .data          0x00000000000081a4        0x0 src/start.o
 .bss           0x00000000000081a4        0x0 src/start.o
 .data          0x00000000000081a4       0x14 src/sh.o
 .bss           0x00000000000081b8        0x0 src/sh.o
 .data          0x00000000000081b8        0x0 src/sub.o
 .bss           0x00000000000081b8        0x0 src/sub.o
 .data          0x00000000000081b8        0x0 src/sll.o
 .bss           0x00000000000081b8        0x0 src/sll.o
 .data          0x00000000000081b8        0x0 src/sra.o
 .bss           0x00000000000081b8        0x0 src/sra.o
 .data          0x00000000000081b8        0x8 src/lh.o
 .bss           0x00000000000081c0        0x0 src/lh.o
 .data          0x00000000000081c0        0x0 src/srai.o
 .bss           0x00000000000081c0        0x0 src/srai.o
 .data          0x00000000000081c0        0x4 src/lb.o
 .bss           0x00000000000081c4        0x0 src/lb.o
 .data          0x00000000000081c4        0x0 src/addi.o
 .bss           0x00000000000081c4        0x0 src/addi.o
 .data          0x00000000000081c4        0x0 src/slli.o
 .bss           0x00000000000081c4        0x0 src/slli.o
 .data          0x00000000000081c4        0x0 src/bgeu.o
 .bss           0x00000000000081c4        0x0 src/bgeu.o
 .data          0x00000000000081c4       0x28 src/sw.o
 .bss           0x00000000000081ec        0x0 src/sw.o
 .data          0x00000000000081ec        0x0 src/beq.o
 .bss           0x00000000000081ec        0x0 src/beq.o
 .data          0x00000000000081ec        0x0 src/auipc.o
 .bss           0x00000000000081ec        0x0 src/auipc.o
 .data          0x00000000000081ec        0x0 src/blt.o
 .bss           0x00000000000081ec        0x0 src/blt.o
 .data          0x00000000000081ec        0x0 src/jalr.o
 .bss           0x00000000000081ec        0x0 src/jalr.o
 .data          0x00000000000081ec       0x10 src/lw.o
 .bss           0x00000000000081fc        0x0 src/lw.o
 .data          0x00000000000081fc        0x0 src/ori.o
 .bss           0x00000000000081fc        0x0 src/ori.o
 .data          0x00000000000081fc        0x0 src/j.o
 .bss           0x00000000000081fc        0x0 src/j.o
 .data          0x00000000000081fc        0x0 src/srl.o
 .bss           0x00000000000081fc        0x0 src/srl.o
 .data          0x00000000000081fc        0x0 src/slt.o
 .bss           0x00000000000081fc        0x0 src/slt.o
 .data          0x00000000000081fc        0x4 src/lbu.o
 .bss           0x0000000000008200        0x0 src/lbu.o
 .data          0x0000000000008200        0x8 src/lhu.o
 .bss           0x0000000000008208        0x0 src/lhu.o
 .data          0x0000000000008208        0x0 src/simple.o
 .bss           0x0000000000008208        0x0 src/simple.o
 .data          0x0000000000008208        0x0 src/bltu.o
 .bss           0x0000000000008208        0x0 src/bltu.o
 .data          0x0000000000008208        0x0 src/bge.o
 .bss           0x0000000000008208        0x0 src/bge.o
 .data          0x0000000000008208        0x0 src/xori.o
 .bss           0x0000000000008208        0x0 src/xori.o
 .data          0x0000000000008208        0xa src/sb.o
 .bss           0x0000000000008212        0x0 src/sb.o
 *fill*         0x0000000000008212        0x2 
 .data          0x0000000000008214        0x0 src/lui.o
 .bss           0x0000000000008214        0x0 src/lui.o
 .data          0x0000000000008214        0x0 src/jal.o
 .bss           0x0000000000008214        0x0 src/jal.o
 .data          0x0000000000008214        0x0 src/add.o
 .bss           0x0000000000008214        0x0 src/add.o
 .data          0x0000000000008214        0x0 src/srli.o
 .bss           0x0000000000008214        0x0 src/srli.o
 .data          0x0000000000008214        0x0 src/andi.o
 .bss           0x0000000000008214        0x0 src/andi.o
 .data          0x0000000000008214        0x0 src/bne.o
 .bss           0x0000000000008214        0x0 src/bne.o
 .data          0x0000000000008214        0x0 src/and.o
 .bss           0x0000000000008214        0x0 src/and.o
 .data          0x0000000000008214        0x0 src/slti.o
 .bss           0x0000000000008214        0x0 src/slti.o
                0x0000000000008214                end = .
                0x0000000000008214                . = ALIGN (0x4)
LOAD src/or.o
LOAD src/xor.o
LOAD src/start.o
LOAD src/sh.o
LOAD src/sub.o
LOAD src/sll.o
LOAD src/sra.o
LOAD src/lh.o
LOAD src/srai.o
LOAD src/lb.o
LOAD src/addi.o
LOAD src/slli.o
LOAD src/bgeu.o
LOAD src/sw.o
LOAD src/beq.o
LOAD src/auipc.o
LOAD src/blt.o
LOAD src/jalr.o
LOAD src/lw.o
LOAD src/ori.o
LOAD src/j.o
LOAD src/srl.o
LOAD src/slt.o
LOAD src/lbu.o
LOAD src/lhu.o
LOAD src/simple.o
LOAD src/bltu.o
LOAD src/bge.o
LOAD src/xori.o
LOAD src/sb.o
LOAD src/lui.o
LOAD src/jal.o
LOAD src/add.o
LOAD src/srli.o
LOAD src/andi.o
LOAD src/bne.o
LOAD src/and.o
LOAD src/slti.o
OUTPUT(firmware/firmware.elf elf32-littleriscv)
