
Memory Configuration

Name             Origin             Length             Attributes
mem              0x0000000000000000 0x0000000000018000
*default*        0x0000000000000000 0xffffffffffffffff

Linker script and memory map


.memory         0x0000000000000000     0x736c
                0x0000000000000000                . = 0x0
 start*(.text)
 *(.text)
 .text          0x0000000000000000      0x1d8 firmware/start.o
                0x0000000000000090                lui_ret
                0x0000000000000098                auipc_ret
                0x00000000000000a0                j_ret
                0x00000000000000a8                jal_ret
                0x00000000000000b0                jalr_ret
                0x00000000000000b8                beq_ret
                0x00000000000000c0                bne_ret
                0x00000000000000c8                blt_ret
                0x00000000000000d0                bge_ret
                0x00000000000000d8                bltu_ret
                0x00000000000000e0                bgeu_ret
                0x00000000000000e8                lb_ret
                0x00000000000000f0                lh_ret
                0x00000000000000f8                lw_ret
                0x0000000000000100                lbu_ret
                0x0000000000000108                lhu_ret
                0x0000000000000110                addi_ret
                0x0000000000000118                slti_ret
                0x0000000000000120                xori_ret
                0x0000000000000128                ori_ret
                0x0000000000000130                andi_ret
                0x0000000000000138                slli_ret
                0x0000000000000140                srli_ret
                0x0000000000000148                srai_ret
                0x0000000000000150                add_ret
                0x0000000000000158                sub_ret
                0x0000000000000160                sll_ret
                0x0000000000000168                slt_ret
                0x0000000000000170                xor_ret
                0x0000000000000178                srl_ret
                0x0000000000000180                sra_ret
                0x0000000000000188                or_ret
                0x0000000000000190                and_ret
                0x0000000000000198                simple_ret
 .text          0x00000000000001d8       0x60 firmware/print.o
                0x00000000000001d8                print_chr
                0x00000000000001e4                print_str
                0x0000000000000200                print_hex
 .text          0x0000000000000238        0xc firmware/hello.o
                0x0000000000000238                hello
 .text          0x0000000000000244      0x544 tests/or.o
                0x0000000000000244                or
 .text          0x0000000000000788      0x540 tests/xor.o
                0x0000000000000788                xor
 .text          0x0000000000000cc8      0x540 tests/sub.o
                0x0000000000000cc8                sub
 .text          0x0000000000001208      0x5ec tests/sll.o
                0x0000000000001208                sll
 .text          0x00000000000017f4      0x61c tests/sra.o
                0x00000000000017f4                sra
 .text          0x0000000000001e10      0x2ec tests/lh.o
                0x0000000000001e10                lh
 .text          0x00000000000020fc      0x33c tests/srai.o
                0x00000000000020fc                srai
 .text          0x0000000000002438      0x2cc tests/lb.o
                0x0000000000002438                lb
 .text          0x0000000000002704      0x30c tests/addi.o
                0x0000000000002704                addi
 .text          0x0000000000002a10      0x308 tests/slli.o
                0x0000000000002a10                slli
 .text          0x0000000000002d18      0x3d8 tests/bgeu.o
                0x0000000000002d18                bgeu
 .text          0x00000000000030f0      0x340 tests/beq.o
                0x00000000000030f0                beq
 *fill*         0x0000000000003430        0x0 
 .text          0x0000000000003430       0xcc tests/auipc.o
                0x0000000000003430                auipc
 .text          0x00000000000034fc      0x340 tests/blt.o
                0x00000000000034fc                blt
 .text          0x000000000000383c      0x184 tests/jalr.o
                0x000000000000383c                jalr
 .text          0x00000000000039c0      0x30c tests/lw.o
                0x00000000000039c0                lw
 .text          0x0000000000003ccc      0x25c tests/ori.o
                0x0000000000003ccc                ori
 .text          0x0000000000003f28       0xbc tests/j.o
                0x0000000000003f28                j
 .text          0x0000000000003fe4      0x63c tests/srl.o
                0x0000000000003fe4                srl
 .text          0x0000000000004620      0x548 tests/slt.o
                0x0000000000004620                slt
 .text          0x0000000000004b68      0x2cc tests/lbu.o
                0x0000000000004b68                lbu
 .text          0x0000000000004e34      0x300 tests/lhu.o
                0x0000000000004e34                lhu
 .text          0x0000000000005134       0x54 tests/simple.o
                0x0000000000005134                simple
 .text          0x0000000000005188      0x378 tests/bltu.o
                0x0000000000005188                bltu
 .text          0x0000000000005500      0x3a0 tests/bge.o
                0x0000000000005500                bge
 .text          0x00000000000058a0      0x268 tests/xori.o
                0x00000000000058a0                xori
 .text          0x0000000000005b08       0xe0 tests/lui.o
                0x0000000000005b08                lui
 .text          0x0000000000005be8       0xd8 tests/jal.o
                0x0000000000005be8                jal
 .text          0x0000000000005cc0      0x560 tests/add.o
                0x0000000000005cc0                add
 .text          0x0000000000006220      0x338 tests/srli.o
                0x0000000000006220                srli
 .text          0x0000000000006558      0x244 tests/andi.o
                0x0000000000006558                andi
 .text          0x000000000000679c      0x344 tests/bne.o
                0x000000000000679c                bne
 .text          0x0000000000006ae0      0x538 tests/and.o
                0x0000000000006ae0                and
 .text          0x0000000000007018      0x2f8 tests/slti.o
                0x0000000000007018                slti
 *(*)
 .data          0x0000000000007310        0x0 firmware/start.o
 .bss           0x0000000000007310        0x0 firmware/start.o
 .data          0x0000000000007310        0x0 firmware/print.o
 .bss           0x0000000000007310        0x0 firmware/print.o
 .rodata.str1.4
                0x0000000000007310       0x11 firmware/print.o
 .comment       0x0000000000007321       0x11 firmware/print.o
                                         0x12 (size before relaxing)
 .data          0x0000000000007332        0x0 firmware/hello.o
 .bss           0x0000000000007332        0x0 firmware/hello.o
 *fill*         0x0000000000007332        0x2 
 .rodata.str1.4
                0x0000000000007334       0x10 firmware/hello.o
                                          0xd (size before relaxing)
 .comment       0x0000000000007344       0x12 firmware/hello.o
 .data          0x0000000000007344        0x0 tests/or.o
 .bss           0x0000000000007344        0x0 tests/or.o
 .data          0x0000000000007344        0x0 tests/xor.o
 .bss           0x0000000000007344        0x0 tests/xor.o
 .data          0x0000000000007344        0x0 tests/sub.o
 .bss           0x0000000000007344        0x0 tests/sub.o
 .data          0x0000000000007344        0x0 tests/sll.o
 .bss           0x0000000000007344        0x0 tests/sll.o
 .data          0x0000000000007344        0x0 tests/sra.o
 .bss           0x0000000000007344        0x0 tests/sra.o
 .data          0x0000000000007344        0x8 tests/lh.o
 .bss           0x000000000000734c        0x0 tests/lh.o
 .data          0x000000000000734c        0x0 tests/srai.o
 .bss           0x000000000000734c        0x0 tests/srai.o
 .data          0x000000000000734c        0x4 tests/lb.o
 .bss           0x0000000000007350        0x0 tests/lb.o
 .data          0x0000000000007350        0x0 tests/addi.o
 .bss           0x0000000000007350        0x0 tests/addi.o
 .data          0x0000000000007350        0x0 tests/slli.o
 .bss           0x0000000000007350        0x0 tests/slli.o
 .data          0x0000000000007350        0x0 tests/bgeu.o
 .bss           0x0000000000007350        0x0 tests/bgeu.o
 .data          0x0000000000007350        0x0 tests/beq.o
 .bss           0x0000000000007350        0x0 tests/beq.o
 .data          0x0000000000007350        0x0 tests/auipc.o
 .bss           0x0000000000007350        0x0 tests/auipc.o
 .data          0x0000000000007350        0x0 tests/blt.o
 .bss           0x0000000000007350        0x0 tests/blt.o
 .data          0x0000000000007350        0x0 tests/jalr.o
 .bss           0x0000000000007350        0x0 tests/jalr.o
 .data          0x0000000000007350       0x10 tests/lw.o
 .bss           0x0000000000007360        0x0 tests/lw.o
 .data          0x0000000000007360        0x0 tests/ori.o
 .bss           0x0000000000007360        0x0 tests/ori.o
 .data          0x0000000000007360        0x0 tests/j.o
 .bss           0x0000000000007360        0x0 tests/j.o
 .data          0x0000000000007360        0x0 tests/srl.o
 .bss           0x0000000000007360        0x0 tests/srl.o
 .data          0x0000000000007360        0x0 tests/slt.o
 .bss           0x0000000000007360        0x0 tests/slt.o
 .data          0x0000000000007360        0x4 tests/lbu.o
 .bss           0x0000000000007364        0x0 tests/lbu.o
 .data          0x0000000000007364        0x8 tests/lhu.o
 .bss           0x000000000000736c        0x0 tests/lhu.o
 .data          0x000000000000736c        0x0 tests/simple.o
 .bss           0x000000000000736c        0x0 tests/simple.o
 .data          0x000000000000736c        0x0 tests/bltu.o
 .bss           0x000000000000736c        0x0 tests/bltu.o
 .data          0x000000000000736c        0x0 tests/bge.o
 .bss           0x000000000000736c        0x0 tests/bge.o
 .data          0x000000000000736c        0x0 tests/xori.o
 .bss           0x000000000000736c        0x0 tests/xori.o
 .data          0x000000000000736c        0x0 tests/lui.o
 .bss           0x000000000000736c        0x0 tests/lui.o
 .data          0x000000000000736c        0x0 tests/jal.o
 .bss           0x000000000000736c        0x0 tests/jal.o
 .data          0x000000000000736c        0x0 tests/add.o
 .bss           0x000000000000736c        0x0 tests/add.o
 .data          0x000000000000736c        0x0 tests/srli.o
 .bss           0x000000000000736c        0x0 tests/srli.o
 .data          0x000000000000736c        0x0 tests/andi.o
 .bss           0x000000000000736c        0x0 tests/andi.o
 .data          0x000000000000736c        0x0 tests/bne.o
 .bss           0x000000000000736c        0x0 tests/bne.o
 .data          0x000000000000736c        0x0 tests/and.o
 .bss           0x000000000000736c        0x0 tests/and.o
 .data          0x000000000000736c        0x0 tests/slti.o
 .bss           0x000000000000736c        0x0 tests/slti.o
                0x000000000000736c                end = .
                0x000000000000736c                . = ALIGN (0x4)
LOAD firmware/start.o
LOAD firmware/print.o
LOAD firmware/hello.o
LOAD tests/or.o
LOAD tests/xor.o
LOAD tests/sub.o
LOAD tests/sll.o
LOAD tests/sra.o
LOAD tests/lh.o
LOAD tests/srai.o
LOAD tests/lb.o
LOAD tests/addi.o
LOAD tests/slli.o
LOAD tests/bgeu.o
LOAD tests/beq.o
LOAD tests/auipc.o
LOAD tests/blt.o
LOAD tests/jalr.o
LOAD tests/lw.o
LOAD tests/ori.o
LOAD tests/j.o
LOAD tests/srl.o
LOAD tests/slt.o
LOAD tests/lbu.o
LOAD tests/lhu.o
LOAD tests/simple.o
LOAD tests/bltu.o
LOAD tests/bge.o
LOAD tests/xori.o
LOAD tests/lui.o
LOAD tests/jal.o
LOAD tests/add.o
LOAD tests/srli.o
LOAD tests/andi.o
LOAD tests/bne.o
LOAD tests/and.o
LOAD tests/slti.o
LOAD /opt/riscv32i/lib/gcc/riscv32-unknown-elf/8.2.0/libgcc.a
OUTPUT(firmware/firmware.elf elf32-littleriscv)
